target datalayout = "e-m:e-p270:32:32-p271:32:32-p272:64:64-i64:64-i128:128-f80:128-n8:16:32:64-S128"
target triple = "x86_64-pc-linux-gnu"

@proto_register_ftp.ett = internal global [2 x ptr] [ptr @ett_ftp, ptr @ett_ftp_reqresp], align 16
@.str.100 = private unnamed_addr constant [29 x i8] c"File Transfer Protocol (FTP)\00", align 1
@.str.101 = private unnamed_addr constant [4 x i8] c"FTP\00", align 1
@.str.102 = private unnamed_addr constant [4 x i8] c"ftp\00", align 1
@proto_ftp = internal global i32 0, align 4
@ftp_handle = internal global ptr null, align 8
@.str.103 = private unnamed_addr constant [9 x i8] c"FTP Data\00", align 1
@.str.104 = private unnamed_addr constant [9 x i8] c"FTP-DATA\00", align 1
@.str.105 = private unnamed_addr constant [9 x i8] c"ftp-data\00", align 1
@proto_ftp_data = internal global i32 0, align 4
@ftpdata_handle = internal global ptr null, align 8
@.str.106 = private unnamed_addr constant [12 x i8] c"credentials\00", align 1
@credentials_tap = internal global i32 0, align 4
@.str.107 = private unnamed_addr constant [15 x i8] c"export.maxsize\00", align 1
@.str.108 = private unnamed_addr constant [63 x i8] c"Max file size (in MB) for export objects (use 0 for unlimited)\00", align 1
@.str.109 = private unnamed_addr constant [76 x i8] c"Maximum file size (in megabytes) for export objects  (use 0 for unlimited).\00", align 1
@pref_export_maxsize = internal global i32 0, align 4
@ftp_eo_tap = internal global i32 0, align 4

; Function Attrs: null_pointer_is_valid sspstrong uwtable
define hidden void @proto_register_ftp() #0 {
  %1 = alloca ptr, align 8
  %2 = alloca ptr, align 8
  call void @llvm.lifetime.start.p0(i64 8, ptr %1) #16
  %3 = call i32 @proto_register_protocol(ptr noundef @.str.100, ptr noundef @.str.101, ptr noundef @.str.102)
  store i32 %3, ptr @proto_ftp, align 4
  %4 = load i32, ptr @proto_ftp, align 4
  %5 = call ptr @register_dissector(ptr noundef @.str.102, ptr noundef @dissect_ftp, i32 noundef %4)
  store ptr %5, ptr @ftp_handle, align 8
  %6 = call i32 @proto_register_protocol(ptr noundef @.str.103, ptr noundef @.str.104, ptr noundef @.str.105)
  store i32 %6, ptr @proto_ftp_data, align 4
  %7 = load i32, ptr @proto_ftp_data, align 4
  %8 = call ptr @register_dissector(ptr noundef @.str.105, ptr noundef @dissect_ftpdata, i32 noundef %7)
  store ptr %8, ptr @ftpdata_handle, align 8
  %9 = load i32, ptr @proto_ftp, align 4
  call void @proto_register_field_array(i32 noundef %9, ptr noundef @proto_register_ftp.hf, i32 noundef 29)
  %10 = load i32, ptr @proto_ftp, align 4
  call void @proto_register_field_array(i32 noundef %10, ptr noundef @proto_register_ftp.data_hf, i32 noundef 5)
  call void @proto_register_subtree_array(ptr noundef @proto_register_ftp.ett, i32 noundef 2)
  %11 = load i32, ptr @proto_ftp, align 4
  %12 = call ptr @expert_register_protocol(i32 noundef %11)
  store ptr %12, ptr %1, align 8
  %13 = load ptr, ptr %1, align 8
  call void @expert_register_field_array(ptr noundef %13, ptr noundef @proto_register_ftp.ei, i32 noundef 4)
  call void @register_init_routine(ptr noundef @ftp_init_protocol)
  call void @register_cleanup_routine(ptr noundef @ftp_cleanup_protocol)
  %14 = call i32 @register_tap(ptr noundef @.str.106)
  store i32 %14, ptr @credentials_tap, align 4
  call void @llvm.lifetime.start.p0(i64 8, ptr %2) #16
  %15 = load i32, ptr @proto_ftp_data, align 4
  %16 = call ptr @prefs_register_protocol(i32 noundef %15, ptr noundef null)
  store ptr %16, ptr %2, align 8
  %17 = load ptr, ptr %2, align 8
  call void @prefs_register_uint_preference(ptr noundef %17, ptr noundef @.str.107, ptr noundef @.str.108, ptr noundef @.str.109, i32 noundef 10, ptr noundef @pref_export_maxsize)
  %18 = load i32, ptr @proto_ftp_data, align 4
  %19 = call i32 @register_export_object(i32 noundef %18, ptr noundef @ftp_eo_packet, ptr noundef @ftp_eo_cleanup)
  store i32 %19, ptr @ftp_eo_tap, align 4
  call void @llvm.lifetime.end.p0(i64 8, ptr %2) #16
  call void @llvm.lifetime.end.p0(i64 8, ptr %1) #16
  ret void
}