; Function Attrs: null_pointer_is_valid sspstrong uwtable
define hidden void @proto_register_ftp() local_unnamed_addr #0 {
  %1 = tail call i32 @proto_register_protocol(ptr noundef nonnull @.str.100, ptr noundef nonnull @.str.101, ptr noundef nonnull @.str.102)
  store i32 %1, ptr @proto_ftp, align 4
  %2 = tail call ptr @register_dissector(ptr noundef nonnull @.str.102, ptr noundef nonnull @dissect_ftp, i32 noundef %1)
  store ptr %2, ptr @ftp_handle, align 8
  %3 = tail call i32 @proto_register_protocol(ptr noundef nonnull @.str.103, ptr noundef nonnull @.str.104, ptr noundef nonnull @.str.105)
  store i32 %3, ptr @proto_ftp_data, align 4
  %4 = tail call ptr @register_dissector(ptr noundef nonnull @.str.105, ptr noundef nonnull @dissect_ftpdata, i32 noundef %3)
  store ptr %4, ptr @ftpdata_handle, align 8
  %5 = load i32, ptr @proto_ftp, align 4
  tail call void @proto_register_field_array(i32 noundef %5, ptr noundef nonnull @proto_register_ftp.hf, i32 noundef 29)
  %6 = load i32, ptr @proto_ftp, align 4
  tail call void @proto_register_field_array(i32 noundef %6, ptr noundef nonnull @proto_register_ftp.data_hf, i32 noundef 5)
  tail call void @proto_register_subtree_array(ptr noundef nonnull @proto_register_ftp.ett, i32 noundef 2)
  %7 = load i32, ptr @proto_ftp, align 4
  %8 = tail call ptr @expert_register_protocol(i32 noundef %7)
  tail call void @expert_register_field_array(ptr noundef %8, ptr noundef nonnull @proto_register_ftp.ei, i32 noundef 4)
  tail call void @register_init_routine(ptr noundef nonnull @ftp_init_protocol)
  tail call void @register_cleanup_routine(ptr noundef nonnull @ftp_cleanup_protocol)
  %9 = tail call i32 @register_tap(ptr noundef nonnull @.str.106)
  store i32 %9, ptr @credentials_tap, align 4
  %10 = load i32, ptr @proto_ftp_data, align 4
  %11 = tail call ptr @prefs_register_protocol(i32 noundef %10, ptr noundef null)
  tail call void @prefs_register_uint_preference(ptr noundef %11, ptr noundef nonnull @.str.107, ptr noundef nonnull @.str.108, ptr noundef nonnull @.str.109, i32 noundef 10, ptr noundef nonnull @pref_export_maxsize)
  %12 = load i32, ptr @proto_ftp_data, align 4
  %13 = tail call i32 @register_export_object(i32 noundef %12, ptr noundef nonnull @ftp_eo_packet, ptr noundef nonnull @ftp_eo_cleanup)
  store i32 %13, ptr @ftp_eo_tap, align 4
  ret void
}